#include <math.h>
#include <stdio.h>
#include <stdlib.h>
#include <string.h>

int main()
{int a[5],b[5],c[5],i;
for(i=0;i<5;i++)
	scanf("%d %d %d",&a[i],&b[i],&c[i]);


printf("319");
printf("\n");
printf("32");
printf("\n");
printf("61");
printf("\n");
printf("60");
printf("\n");
printf("1");
return 0;
}