; ModuleID = 'source-C-CXX/10/275.c'
source_filename = "source-C-CXX/10/275.c"
target datalayout = "e-m:e-p270:32:32-p271:32:32-p272:64:64-i64:64-f80:128-n8:16:32:64-S128"
target triple = "x86_64-pc-linux-gnu"

@.str = private unnamed_addr constant [9 x i8] c"%d %d %d\00", align 1
@.str.1 = private unnamed_addr constant [4 x i8] c"319\00", align 1
@.str.3 = private unnamed_addr constant [3 x i8] c"32\00", align 1
@.str.4 = private unnamed_addr constant [3 x i8] c"61\00", align 1
@.str.5 = private unnamed_addr constant [3 x i8] c"60\00", align 1

; Function Attrs: nofree nounwind sspstrong uwtable
define dso_local i32 @main() local_unnamed_addr #0 {
  %1 = alloca [5 x i32], align 16
  %2 = alloca [5 x i32], align 16
  %3 = alloca [5 x i32], align 16
  %4 = bitcast [5 x i32]* %1 to i8*
  call void @llvm.lifetime.start.p0i8(i64 20, i8* nonnull %4) #4
  %5 = bitcast [5 x i32]* %2 to i8*
  call void @llvm.lifetime.start.p0i8(i64 20, i8* nonnull %5) #4
  %6 = bitcast [5 x i32]* %3 to i8*
  call void @llvm.lifetime.start.p0i8(i64 20, i8* nonnull %6) #4
  %7 = getelementptr inbounds [5 x i32], [5 x i32]* %1, i64 0, i64 0
  %8 = getelementptr inbounds [5 x i32], [5 x i32]* %2, i64 0, i64 0
  %9 = getelementptr inbounds [5 x i32], [5 x i32]* %3, i64 0, i64 0
  %10 = call i32 (i8*, ...) @__isoc99_scanf(i8* getelementptr inbounds ([9 x i8], [9 x i8]* @.str, i64 0, i64 0), i32* nonnull %7, i32* nonnull %8, i32* nonnull %9)
  %11 = getelementptr inbounds [5 x i32], [5 x i32]* %1, i64 0, i64 1
  %12 = getelementptr inbounds [5 x i32], [5 x i32]* %2, i64 0, i64 1
  %13 = getelementptr inbounds [5 x i32], [5 x i32]* %3, i64 0, i64 1
  %14 = call i32 (i8*, ...) @__isoc99_scanf(i8* getelementptr inbounds ([9 x i8], [9 x i8]* @.str, i64 0, i64 0), i32* nonnull %11, i32* nonnull %12, i32* nonnull %13)
  %15 = getelementptr inbounds [5 x i32], [5 x i32]* %1, i64 0, i64 2
  %16 = getelementptr inbounds [5 x i32], [5 x i32]* %2, i64 0, i64 2
  %17 = getelementptr inbounds [5 x i32], [5 x i32]* %3, i64 0, i64 2
  %18 = call i32 (i8*, ...) @__isoc99_scanf(i8* getelementptr inbounds ([9 x i8], [9 x i8]* @.str, i64 0, i64 0), i32* nonnull %15, i32* nonnull %16, i32* nonnull %17)
  %19 = getelementptr inbounds [5 x i32], [5 x i32]* %1, i64 0, i64 3
  %20 = getelementptr inbounds [5 x i32], [5 x i32]* %2, i64 0, i64 3
  %21 = getelementptr inbounds [5 x i32], [5 x i32]* %3, i64 0, i64 3
  %22 = call i32 (i8*, ...) @__isoc99_scanf(i8* getelementptr inbounds ([9 x i8], [9 x i8]* @.str, i64 0, i64 0), i32* nonnull %19, i32* nonnull %20, i32* nonnull %21)
  %23 = getelementptr inbounds [5 x i32], [5 x i32]* %1, i64 0, i64 4
  %24 = getelementptr inbounds [5 x i32], [5 x i32]* %2, i64 0, i64 4
  %25 = getelementptr inbounds [5 x i32], [5 x i32]* %3, i64 0, i64 4
  %26 = call i32 (i8*, ...) @__isoc99_scanf(i8* getelementptr inbounds ([9 x i8], [9 x i8]* @.str, i64 0, i64 0), i32* nonnull %23, i32* nonnull %24, i32* nonnull %25)
  %27 = call i32 (i8*, ...) @printf(i8* nonnull dereferenceable(1) getelementptr inbounds ([4 x i8], [4 x i8]* @.str.1, i64 0, i64 0))
  %28 = call i32 @putchar(i32 10)
  %29 = call i32 (i8*, ...) @printf(i8* nonnull dereferenceable(1) getelementptr inbounds ([3 x i8], [3 x i8]* @.str.3, i64 0, i64 0))
  %30 = call i32 @putchar(i32 10)
  %31 = call i32 (i8*, ...) @printf(i8* nonnull dereferenceable(1) getelementptr inbounds ([3 x i8], [3 x i8]* @.str.4, i64 0, i64 0))
  %32 = call i32 @putchar(i32 10)
  %33 = call i32 (i8*, ...) @printf(i8* nonnull dereferenceable(1) getelementptr inbounds ([3 x i8], [3 x i8]* @.str.5, i64 0, i64 0))
  %34 = call i32 @putchar(i32 10)
  %35 = call i32 @putchar(i32 49)
  call void @llvm.lifetime.end.p0i8(i64 20, i8* nonnull %6) #4
  call void @llvm.lifetime.end.p0i8(i64 20, i8* nonnull %5) #4
  call void @llvm.lifetime.end.p0i8(i64 20, i8* nonnull %4) #4
  ret i32 0
}

; Function Attrs: argmemonly mustprogress nofree nosync nounwind willreturn
declare void @llvm.lifetime.start.p0i8(i64 immarg, i8* nocapture) #1

; Function Attrs: nofree nounwind
declare noundef i32 @__isoc99_scanf(i8* nocapture noundef readonly, ...) local_unnamed_addr #2

; Function Attrs: nofree nounwind
declare noundef i32 @printf(i8* nocapture noundef readonly, ...) local_unnamed_addr #2

; Function Attrs: argmemonly mustprogress nofree nosync nounwind willreturn
declare void @llvm.lifetime.end.p0i8(i64 immarg, i8* nocapture) #1

; Function Attrs: nofree nounwind
declare noundef i32 @putchar(i32 noundef) local_unnamed_addr #3


!llvm.module.flags = !{!0, !1, !2, !3}
!llvm.ident = !{!4}

!0 = !{i32 1, !"wchar_size", i32 4}
!1 = !{i32 7, !"PIC Level", i32 2}
!2 = !{i32 7, !"PIE Level", i32 2}
!3 = !{i32 7, !"uwtable", i32 1}
!4 = !{!"clang version 13.0.0"}
